; Function Attrs: mustprogress uwtable
define noundef zeroext i1 @_ZN4base10JSONWriter5WriteERKNS_5ValueEPNSt7__cxx1112basic_stringIcSt11char_traitsIcESaIcEEE(ptr noundef nonnull align 8 dereferenceable(12) %0, ptr noundef nonnull initializes((8, 16)) %1) local_unnamed_addr #0 align 2 personality ptr @__gxx_personality_v0 {
  %3 = alloca %"class.base::JSONWriter", align 8
  %4 = getelementptr inbounds nuw i8, ptr %1, i64 8
  store i64 0, ptr %4, align 8, !tbaa !3
  %5 = load ptr, ptr %1, align 8, !tbaa !11
  store i8 0, ptr %5, align 1, !tbaa !12
  tail call void @_ZNSt7__cxx1112basic_stringIcSt11char_traitsIcESaIcEE7reserveEm(ptr noundef nonnull align 8 dereferenceable(32) %1, i64 noundef 1024)
  call void @llvm.lifetime.start.p0(i64 16, ptr nonnull %3) #11
  call void @_ZN4base10JSONWriterC1EiPNSt7__cxx1112basic_stringIcSt11char_traitsIcESaIcEEE(ptr noundef nonnull align 8 dereferenceable(16) %3, i32 noundef 0, ptr noundef nonnull %1)
  %6 = call noundef zeroext i1 @_ZN4base10JSONWriter15BuildJSONStringERKNS_5ValueEm(ptr noundef nonnull align 8 dereferenceable(16) %3, ptr noundef nonnull align 8 dereferenceable(12) %0, i64 noundef 0)
  call void @llvm.lifetime.end.p0(i64 16, ptr nonnull %3) #11
  ret i1 %6
}